; Function Attrs: mustprogress nounwind uwtable
define void @_ZN7rocksdb15FileTraceReader5CloseEv(ptr dead_on_unwind noalias writable writeonly sret(%"class.rocksdb::Status") align 8 captures(none) initializes((0, 6), (8, 16)) %0, ptr noundef nonnull align 8 captures(none) dereferenceable(48) %1) unnamed_addr #1 align 2 personality ptr @__gxx_personality_v0 {
  %3 = getelementptr inbounds nuw i8, ptr %1, i64 8
  %4 = load ptr, ptr %3, align 8, !tbaa !20
  store ptr null, ptr %3, align 8, !tbaa !20
  %.not.i.i = icmp eq ptr %4, null
  br i1 %.not.i.i, label %_ZNSt10unique_ptrIN7rocksdb22RandomAccessFileReaderESt14default_deleteIS1_EE5resetEPS1_.exit, label %_ZNKSt14default_deleteIN7rocksdb22RandomAccessFileReaderEEclEPS1_.exit.i.i

_ZNKSt14default_deleteIN7rocksdb22RandomAccessFileReaderEEclEPS1_.exit.i.i: ; preds = %2
  tail call void @_ZN7rocksdb22RandomAccessFileReaderD2Ev(ptr noundef nonnull align 8 dereferenceable(202) %4) #22
  tail call void @_ZdlPvm(ptr noundef nonnull %4, i64 noundef 208) #20
  br label %_ZNSt10unique_ptrIN7rocksdb22RandomAccessFileReaderESt14default_deleteIS1_EE5resetEPS1_.exit

_ZNSt10unique_ptrIN7rocksdb22RandomAccessFileReaderESt14default_deleteIS1_EE5resetEPS1_.exit: ; preds = %2, %_ZNKSt14default_deleteIN7rocksdb22RandomAccessFileReaderEEclEPS1_.exit.i.i
  %5 = getelementptr inbounds nuw i8, ptr %0, i64 8
  store ptr null, ptr %5, align 8, !tbaa !36, !alias.scope !38
  tail call void @llvm.memset.p0.i64(ptr noundef nonnull align 8 dereferenceable(16) %0, i8 0, i64 6, i1 false), !alias.scope !38
  ret void
}